target datalayout = "e-m:e-p270:32:32-p271:32:32-p272:64:64-i64:64-i128:128-f80:128-n8:16:32:64-S128"
target triple = "x86_64-pc-linux-gnu"

@hf_nfsacl_entry = internal global i32 0, align 4
@ett_nfsacl_entry = internal global i32 0, align 4
@.str.65 = private unnamed_addr constant [8 x i8] c"fhandle\00", align 1

; Function Attrs: null_pointer_is_valid sspstrong uwtable
define internal i32 @dissect_nfsacl3_setacl_call(ptr noundef %0, ptr noundef %1, ptr noundef %2, ptr noundef %3) #0 {
  %5 = alloca ptr, align 8
  %6 = alloca ptr, align 8
  %7 = alloca ptr, align 8
  %8 = alloca ptr, align 8
  %9 = alloca ptr, align 8
  %10 = alloca ptr, align 8
  %11 = alloca i32, align 4
  store ptr %0, ptr %5, align 8
  store ptr %1, ptr %6, align 8
  store ptr %2, ptr %7, align 8
  store ptr %3, ptr %8, align 8
  call void @llvm.lifetime.start.p0(i64 8, ptr %9) #4
  call void @llvm.lifetime.start.p0(i64 8, ptr %10) #4
  call void @llvm.lifetime.start.p0(i64 4, ptr %11) #4
  store i32 0, ptr %11, align 4
  %12 = load ptr, ptr %5, align 8
  %13 = load i32, ptr %11, align 4
  %14 = load ptr, ptr %6, align 8
  %15 = load ptr, ptr %7, align 8
  %16 = load ptr, ptr %8, align 8
  %17 = call i32 @dissect_nfs3_fh(ptr noundef %12, i32 noundef %13, ptr noundef %14, ptr noundef %15, ptr noundef @.str.65, ptr noundef null, ptr noundef %16)
  store i32 %17, ptr %11, align 4
  %18 = load ptr, ptr %7, align 8
  %19 = load i32, ptr @hf_nfsacl_entry, align 4
  %20 = load ptr, ptr %5, align 8
  %21 = load i32, ptr %11, align 4
  %22 = add i32 %21, 0
  %23 = call ptr @proto_tree_add_item(ptr noundef %18, i32 noundef %19, ptr noundef %20, i32 noundef %22, i32 noundef -1, i32 noundef 0)
  store ptr %23, ptr %9, align 8
  %24 = load ptr, ptr %9, align 8
  %25 = load i32, ptr @ett_nfsacl_entry, align 4
  %26 = call ptr @proto_item_add_subtree(ptr noundef %24, i32 noundef %25)
  store ptr %26, ptr %10, align 8
  %27 = load ptr, ptr %5, align 8
  %28 = load i32, ptr %11, align 4
  %29 = load ptr, ptr %6, align 8
  %30 = load ptr, ptr %10, align 8
  %31 = call i32 @dissect_nfsacl_secattr(ptr noundef %27, i32 noundef %28, ptr noundef %29, ptr noundef %30)
  store i32 %31, ptr %11, align 4
  %32 = load i32, ptr %11, align 4
  call void @llvm.lifetime.end.p0(i64 4, ptr %11) #4
  call void @llvm.lifetime.end.p0(i64 8, ptr %10) #4
  call void @llvm.lifetime.end.p0(i64 8, ptr %9) #4
  ret i32 %32
}