; Function Attrs: null_pointer_is_valid sspstrong uwtable
define internal noundef i32 @dissect_nfsacl3_setacl_call(ptr noundef %0, ptr noundef %1, ptr noundef %2, ptr noundef %3) #0 {
  %5 = tail call i32 @dissect_nfs3_fh(ptr noundef %0, i32 noundef 0, ptr noundef %1, ptr noundef %2, ptr noundef nonnull @.str.65, ptr noundef null, ptr noundef %3)
  %6 = load i32, ptr @hf_nfsacl_entry, align 4
  %7 = tail call ptr @proto_tree_add_item(ptr noundef %2, i32 noundef %6, ptr noundef %0, i32 noundef %5, i32 noundef -1, i32 noundef 0)
  %8 = load i32, ptr @ett_nfsacl_entry, align 4
  %9 = tail call ptr @proto_item_add_subtree(ptr noundef %7, i32 noundef %8)
  %10 = tail call fastcc i32 @dissect_nfsacl_secattr(ptr noundef %0, i32 noundef %5, ptr noundef %9)
  ret i32 %10
}